target datalayout = "e-m:e-p270:32:32-p271:32:32-p272:64:64-i64:64-i128:128-f80:128-n8:16:32:64-S128"
target triple = "x86_64-pc-linux-gnu"

%struct.tm = type { i32, i32, i32, i32, i32, i32, i32, i32, i32, i64, ptr }

; Function Attrs: nounwind uwtable
define internal i64 @DSTcorrect(i64 noundef %0, i64 noundef %1) #0 {
  %3 = alloca i64, align 8
  %4 = alloca i64, align 8
  %5 = alloca i64, align 8
  %6 = alloca i64, align 8
  %7 = alloca ptr, align 8
  store i64 %0, ptr %3, align 8, !tbaa !4
  store i64 %1, ptr %4, align 8, !tbaa !4
  call void @llvm.lifetime.start.p0(i64 8, ptr %5) #7
  call void @llvm.lifetime.start.p0(i64 8, ptr %6) #7
  call void @llvm.lifetime.start.p0(i64 8, ptr %7) #7
  %8 = call ptr @localtime(ptr noundef %3) #7
  store ptr %8, ptr %7, align 8, !tbaa !13
  %9 = load ptr, ptr %7, align 8, !tbaa !13
  %10 = getelementptr inbounds nuw %struct.tm, ptr %9, i32 0, i32 2
  %11 = load i32, ptr %10, align 8, !tbaa !47
  %12 = add nsw i32 %11, 1
  %13 = srem i32 %12, 24
  %14 = sext i32 %13 to i64
  store i64 %14, ptr %5, align 8, !tbaa !4
  %15 = call ptr @localtime(ptr noundef %4) #7
  store ptr %15, ptr %7, align 8, !tbaa !13
  %16 = load ptr, ptr %7, align 8, !tbaa !13
  %17 = getelementptr inbounds nuw %struct.tm, ptr %16, i32 0, i32 2
  %18 = load i32, ptr %17, align 8, !tbaa !47
  %19 = add nsw i32 %18, 1
  %20 = srem i32 %19, 24
  %21 = sext i32 %20 to i64
  store i64 %21, ptr %6, align 8, !tbaa !4
  %22 = load i64, ptr %4, align 8, !tbaa !4
  %23 = load i64, ptr %3, align 8, !tbaa !4
  %24 = sub nsw i64 %22, %23
  %25 = load i64, ptr %5, align 8, !tbaa !4
  %26 = load i64, ptr %6, align 8, !tbaa !4
  %27 = sub nsw i64 %25, %26
  %28 = mul nsw i64 %27, 3600
  %29 = add nsw i64 %24, %28
  call void @llvm.lifetime.end.p0(i64 8, ptr %7) #7
  call void @llvm.lifetime.end.p0(i64 8, ptr %6) #7
  call void @llvm.lifetime.end.p0(i64 8, ptr %5) #7
  ret i64 %29
}

; Function Attrs: nounwind uwtable
define internal i64 @RelativeDate(i64 noundef %0, i64 noundef %1, i32 noundef %2, i64 noundef %3, i64 noundef %4) #0 {
  %6 = alloca i64, align 8
  %7 = alloca i64, align 8
  %8 = alloca i64, align 8
  %9 = alloca i32, align 4
  %10 = alloca i64, align 8
  %11 = alloca i64, align 8
  %12 = alloca ptr, align 8
  %13 = alloca i64, align 8
  %14 = alloca i64, align 8
  %15 = alloca i32, align 4
  store i64 %0, ptr %7, align 8, !tbaa !4
  store i64 %1, ptr %8, align 8, !tbaa !4
  store i32 %2, ptr %9, align 4, !tbaa !16
  store i64 %3, ptr %10, align 8, !tbaa !4
  store i64 %4, ptr %11, align 8, !tbaa !4
  call void @llvm.lifetime.start.p0(i64 8, ptr %12) #7
  call void @llvm.lifetime.start.p0(i64 8, ptr %13) #7
  call void @llvm.lifetime.start.p0(i64 8, ptr %14) #7
  %16 = load i64, ptr %7, align 8, !tbaa !4
  %17 = load i64, ptr %8, align 8, !tbaa !4
  %18 = sub nsw i64 %16, %17
  store i64 %18, ptr %13, align 8, !tbaa !4
  %19 = call ptr @gmtime(ptr noundef %13) #7
  store ptr %19, ptr %12, align 8, !tbaa !13
  %20 = load i64, ptr %7, align 8, !tbaa !4
  store i64 %20, ptr %14, align 8, !tbaa !4
  %21 = load i64, ptr %11, align 8, !tbaa !4
  %22 = load ptr, ptr %12, align 8, !tbaa !13
  %23 = getelementptr inbounds nuw %struct.tm, ptr %22, i32 0, i32 6
  %24 = load i32, ptr %23, align 8, !tbaa !81
  %25 = sext i32 %24 to i64
  %26 = sub nsw i64 %21, %25
  %27 = add nsw i64 %26, 7
  %28 = srem i64 %27, 7
  %29 = mul nsw i64 86400, %28
  %30 = load i64, ptr %14, align 8, !tbaa !4
  %31 = add nsw i64 %30, %29
  store i64 %31, ptr %14, align 8, !tbaa !4
  %32 = load i64, ptr %10, align 8, !tbaa !4
  %33 = icmp sle i64 %32, 0
  br i1 %33, label %34, label %36

34:                                               ; preds = %5
  %35 = load i64, ptr %10, align 8, !tbaa !4
  br label %39

36:                                               ; preds = %5
  %37 = load i64, ptr %10, align 8, !tbaa !4
  %38 = sub nsw i64 %37, 1
  br label %39

39:                                               ; preds = %36, %34
  %40 = phi i64 [ %35, %34 ], [ %38, %36 ]
  %41 = mul nsw i64 604800, %40
  %42 = load i64, ptr %14, align 8, !tbaa !4
  %43 = add nsw i64 %42, %41
  store i64 %43, ptr %14, align 8, !tbaa !4
  %44 = load i32, ptr %9, align 4, !tbaa !16
  %45 = icmp eq i32 %44, 2
  br i1 %45, label %46, label %50

46:                                               ; preds = %39
  %47 = load i64, ptr %7, align 8, !tbaa !4
  %48 = load i64, ptr %14, align 8, !tbaa !4
  %49 = call i64 @DSTcorrect(i64 noundef %47, i64 noundef %48)
  store i64 %49, ptr %6, align 8
  store i32 1, ptr %15, align 4
  br label %54

50:                                               ; preds = %39
  %51 = load i64, ptr %14, align 8, !tbaa !4
  %52 = load i64, ptr %7, align 8, !tbaa !4
  %53 = sub nsw i64 %51, %52
  store i64 %53, ptr %6, align 8
  store i32 1, ptr %15, align 4
  br label %54

54:                                               ; preds = %50, %46
  call void @llvm.lifetime.end.p0(i64 8, ptr %14) #7
  call void @llvm.lifetime.end.p0(i64 8, ptr %13) #7
  call void @llvm.lifetime.end.p0(i64 8, ptr %12) #7
  %55 = load i64, ptr %6, align 8
  ret i64 %55
}