; Function Attrs: nounwind uwtable
define internal fastcc i64 @RelativeDate(i64 noundef %0, i64 noundef %1, i32 noundef %2, i64 noundef %3, i64 noundef %4) unnamed_addr #0 {
  %6 = alloca i64, align 8
  %7 = alloca i64, align 8
  %8 = alloca i64, align 8
  call void @llvm.lifetime.start.p0(i64 8, ptr nonnull %8) #7
  %9 = sub nsw i64 %0, %1
  store i64 %9, ptr %8, align 8, !tbaa !4
  %10 = call ptr @gmtime(ptr noundef nonnull %8) #7
  %11 = getelementptr inbounds nuw i8, ptr %10, i64 24
  %12 = load i32, ptr %11, align 8, !tbaa !50
  %13 = sext i32 %12 to i64
  %14 = add i64 %4, 7
  %15 = sub i64 %14, %13
  %16 = srem i64 %15, 7
  %17 = mul nsw i64 %16, 86400
  %18 = icmp sgt i64 %3, 0
  %19 = sext i1 %18 to i64
  %20 = add nsw i64 %3, %19
  %21 = mul nsw i64 %20, 604800
  %22 = add i64 %21, %0
  %23 = add i64 %22, %17
  %24 = icmp eq i32 %2, 2
  br i1 %24, label %25, label %41

25:                                               ; preds = %5
  call void @llvm.lifetime.start.p0(i64 8, ptr nonnull %6)
  call void @llvm.lifetime.start.p0(i64 8, ptr nonnull %7)
  store i64 %0, ptr %6, align 8, !tbaa !4
  store i64 %23, ptr %7, align 8, !tbaa !4
  %26 = call ptr @localtime(ptr noundef nonnull %6) #7
  %27 = getelementptr inbounds nuw i8, ptr %26, i64 8
  %28 = load i32, ptr %27, align 8, !tbaa !47
  %29 = add nsw i32 %28, 1
  %30 = srem i32 %29, 24
  %31 = call ptr @localtime(ptr noundef nonnull %7) #7
  %32 = getelementptr inbounds nuw i8, ptr %31, i64 8
  %33 = load i32, ptr %32, align 8, !tbaa !47
  %34 = add nsw i32 %33, 1
  %35 = srem i32 %34, 24
  %36 = load i64, ptr %7, align 8, !tbaa !4
  %37 = load i64, ptr %6, align 8, !tbaa !4
  %38 = sub i64 %36, %37
  %narrow.i = sub nsw i32 %30, %35
  %narrow3.i = mul nsw i32 %narrow.i, 3600
  %39 = sext i32 %narrow3.i to i64
  %40 = add nsw i64 %38, %39
  call void @llvm.lifetime.end.p0(i64 8, ptr nonnull %6)
  call void @llvm.lifetime.end.p0(i64 8, ptr nonnull %7)
  br label %43

41:                                               ; preds = %5
  %42 = sub nsw i64 %23, %0
  br label %43

43:                                               ; preds = %41, %25
  %.0 = phi i64 [ %40, %25 ], [ %42, %41 ]
  call void @llvm.lifetime.end.p0(i64 8, ptr nonnull %8) #7
  ret i64 %.0
}